target datalayout = "e-m:e-p270:32:32-p271:32:32-p272:64:64-i64:64-i128:128-f80:128-n8:16:32:64-S128"
target triple = "x86_64-pc-linux-gnu"

@plugin_inited = internal global i32 0, align 4
@cont_id = internal global i64 -2, align 8
@.str.23 = private unnamed_addr constant [93 x i8] c"jobacct: set_proctrack_container_id: cont_id is already set to %lu you are setting it to %lu\00", align 1
@.str.24 = private unnamed_addr constant [82 x i8] c"jobacct: set_proctrack_container_id: I was given most likely an unset cont_id %lu\00", align 1

; Function Attrs: nounwind uwtable
define dso_local i32 @jobacct_gather_set_proctrack_container_id(i64 noundef %0) #0 {
  %2 = alloca i32, align 4
  %3 = alloca i64, align 8
  store i64 %0, ptr %3, align 8
  %4 = load i32, ptr @plugin_inited, align 4
  %5 = icmp eq i32 %4, 1
  br i1 %5, label %6, label %7

6:                                                ; preds = %1
  store i32 0, ptr %2, align 4
  br label %21

7:                                                ; preds = %1
  %8 = load i64, ptr @cont_id, align 8
  %9 = icmp ne i64 %8, -2
  br i1 %9, label %10, label %13

10:                                               ; preds = %7
  %11 = load i64, ptr @cont_id, align 8
  %12 = load i64, ptr %3, align 8
  call void (ptr, ...) @warning(ptr noundef @.str.23, i64 noundef %11, i64 noundef %12)
  br label %13

13:                                               ; preds = %10, %7
  %14 = load i64, ptr %3, align 8
  %15 = icmp ule i64 %14, 0
  br i1 %15, label %16, label %19

16:                                               ; preds = %13
  %17 = load i64, ptr %3, align 8
  %18 = call i32 (ptr, ...) @error(ptr noundef @.str.24, i64 noundef %17)
  store i32 -1, ptr %2, align 4
  br label %21

19:                                               ; preds = %13
  %20 = load i64, ptr %3, align 8
  store i64 %20, ptr @cont_id, align 8
  store i32 0, ptr %2, align 4
  br label %21

21:                                               ; preds = %19, %16, %6
  %22 = load i32, ptr %2, align 4
  ret i32 %22
}