; Function Attrs: nounwind uwtable
define dso_local range(i32 -1, 1) i32 @jobacct_gather_set_proctrack_container_id(i64 noundef %0) local_unnamed_addr #0 {
  %2 = load i32, ptr @plugin_inited, align 4
  %3 = icmp eq i32 %2, 1
  br i1 %3, label %12, label %4

4:                                                ; preds = %1
  %5 = load i64, ptr @cont_id, align 8
  %.not = icmp eq i64 %5, -2
  br i1 %.not, label %7, label %6

6:                                                ; preds = %4
  tail call void (ptr, ...) @warning(ptr noundef nonnull @.str.23, i64 noundef %5, i64 noundef %0) #10
  br label %7

7:                                                ; preds = %6, %4
  %8 = icmp eq i64 %0, 0
  br i1 %8, label %9, label %11

9:                                                ; preds = %7
  %10 = tail call i32 (ptr, ...) @error(ptr noundef nonnull @.str.24, i64 noundef 0) #10
  br label %12

11:                                               ; preds = %7
  store i64 %0, ptr @cont_id, align 8
  br label %12

12:                                               ; preds = %1, %11, %9
  %.0 = phi i32 [ -1, %9 ], [ 0, %11 ], [ 0, %1 ]
  ret i32 %.0
}